target datalayout = "e-m:e-p270:32:32-p271:32:32-p272:64:64-i64:64-i128:128-f80:128-n8:16:32:64-S128"
target triple = "x86_64-pc-linux-gnu"

%struct.darktable_t = type { %struct.dt_codepath_t, i32, i32, ptr, ptr, ptr, ptr, ptr, ptr, ptr, ptr, ptr, ptr, ptr, ptr, ptr, ptr, ptr, ptr, ptr, ptr, ptr, ptr, ptr, ptr, ptr, ptr, ptr, ptr, ptr, [64 x %struct.dt_pthread_mutex_t], %struct.dt_pthread_mutex_t, %struct.dt_pthread_mutex_t, %struct.dt_pthread_mutex_t, %struct.dt_pthread_mutex_t, %struct.dt_pthread_mutex_t, ptr, ptr, ptr, ptr, ptr, ptr, ptr, ptr, ptr, ptr, ptr, ptr, ptr, %struct.dt_lua_state_t, ptr, double, ptr, i32, [47 x i32], i32, i32, ptr, ptr, %struct.dt_sys_resources_t, %struct.dt_backthumb_t, %struct.dt_gimp_t }
%struct.dt_codepath_t = type { i8, [3 x i8] }
%struct.dt_pthread_mutex_t = type { %union.pthread_mutex_t }
%union.pthread_mutex_t = type { %struct.__pthread_mutex_s }
%struct.__pthread_mutex_s = type { i32, i32, i32, i32, i32, i16, i16, %struct.__pthread_internal_list }
%struct.__pthread_internal_list = type { ptr, ptr }
%struct.dt_lua_state_t = type { i32 }
%struct.dt_sys_resources_t = type { i64, i64, ptr, ptr, i32 }
%struct.dt_backthumb_t = type { double, double, i32, i32, i32, i32 }
%struct.dt_gimp_t = type { i32, ptr, ptr, i32, i32 }
%struct.dt_selection_t = type { ptr, i32 }
%struct.dt_image_t = type { i32, i32, float, float, float, float, float, float, float, [64 x i8], [64 x i8], [128 x i8], [64 x i8], [64 x i8], [64 x i8], [64 x i8], i64, i32, %union.dt_image_correction_data_t, [64 x i8], [64 x i8], [64 x i8], [128 x i8], i32, [256 x i8], i32, i32, i32, i32, i32, i32, i32, i32, i32, i32, float, i32, i32, i32, i32, i32, i32, i64, i64, i64, i64, i32, [12 x i8], %struct.dt_iop_buffer_dsc_t, [9 x float], ptr, i32, i32, %struct.dt_image_raw_parameters_t, %struct.dt_image_geoloc_t, %struct._color_harmony_t, i16, [4 x i16], i32, i32, float, float, [4 x float], [4 x [3 x float]], [4 x float], ptr, ptr, i32, i32, [8 x i8] }
%union.dt_image_correction_data_t = type { %struct.anon.0 }
%struct.anon.0 = type { i32, float, [11 x float], [11 x float], [11 x float], [11 x float], [11 x float] }
%struct.dt_iop_buffer_dsc_t = type { i32, i32, i32, [6 x [6 x i8]], %struct.anon.3, [12 x i8], %struct.anon.4, [4 x float], i32, [12 x i8] }
%struct.anon.3 = type { i16, i16 }
%struct.anon.4 = type { i32, [12 x i8], [4 x float] }
%struct.dt_image_raw_parameters_t = type { i32 }
%struct.dt_image_geoloc_t = type { double, double, double }
%struct._color_harmony_t = type { i32, i32, i32 }
%struct.dt_gui_gtk_t = type { ptr, %struct.dt_gui_widgets_t, %struct.dt_gui_scrollbars_t, i32, ptr, i32, [39 x %struct._GdkRGBA], i32, i32, i32, i32, i32, double, double, double, double, ptr, double, double, double, double, i32, i32, [4096 x i8], i32, i32, i32, %struct.dt_pthread_mutex_t }
%struct.dt_gui_widgets_t = type { ptr, ptr, ptr, ptr, i32, i32, i32 }
%struct.dt_gui_scrollbars_t = type { ptr, ptr, i32 }
%struct._GdkRGBA = type { double, double, double, double }

@darktable = external global %struct.darktable_t, align 8
@.str.3 = private unnamed_addr constant [120 x i8] c"generated/home/dtcxzyw/WorkSpace/Projects/compilers/llvm-opt-benchmark/bench/darktable/darktable/src/common/selection.c\00", align 1
@.str.5 = private unnamed_addr constant [38 x i8] c"[sql] %s:%d, function %s(): exec \22%s\22\00", align 1
@stderr = external global ptr, align 8
@.str.7 = private unnamed_addr constant [53 x i8] c"sqlite3 error: %s:%d, function %s(), query \22%s\22: %s\0A\00", align 1
@.str.26 = private unnamed_addr constant [40 x i8] c"[signal] raise %s; %s:%d, function %s()\00", align 1
@.str.27 = private unnamed_addr constant [28 x i8] c"DT_SIGNAL_SELECTION_CHANGED\00", align 1
@__FUNCTION__._selection_raise_signal = private unnamed_addr constant [24 x i8] c"_selection_raise_signal\00", align 1
@.str.28 = private unnamed_addr constant [63 x i8] c"INSERT OR IGNORE INTO main.selected_images (imgid) VALUES (%u)\00", align 1
@.str.29 = private unnamed_addr constant [117 x i8] c"INSERT OR IGNORE INTO main.selected_images (imgid)  SELECT id  FROM main.images   WHERE group_id = %d AND id IN (%s)\00", align 1
@__FUNCTION__._selection_select = private unnamed_addr constant [18 x i8] c"_selection_select\00", align 1

; Function Attrs: nounwind uwtable
define internal void @_selection_raise_signal() #0 {
  call void @dt_act_on_reset_cache(i32 noundef 1)
  call void @dt_act_on_reset_cache(i32 noundef 0)
  br label %1

1:                                                ; preds = %0
  %2 = load i32, ptr getelementptr inbounds nuw (%struct.darktable_t, ptr @darktable, i32 0, i32 53), align 8, !tbaa !55
  %3 = and i32 %2, 1
  %4 = icmp ne i32 %3, 0
  br i1 %4, label %5, label %21

5:                                                ; preds = %1
  %6 = load i32, ptr getelementptr inbounds ([47 x i32], ptr getelementptr inbounds nuw (%struct.darktable_t, ptr @darktable, i32 0, i32 54), i64 0, i64 8), align 4, !tbaa !56
  %7 = icmp ne i32 %6, 0
  br i1 %7, label %8, label %21

8:                                                ; preds = %5
  br label %9

9:                                                ; preds = %8
  %10 = load i32, ptr getelementptr inbounds nuw (%struct.darktable_t, ptr @darktable, i32 0, i32 2), align 8, !tbaa !57
  %11 = and i32 1048576, %10
  %12 = icmp ne i32 %11, 0
  br i1 %12, label %13, label %19

13:                                               ; preds = %9
  %14 = load i32, ptr getelementptr inbounds nuw (%struct.darktable_t, ptr @darktable, i32 0, i32 2), align 8, !tbaa !57
  %15 = xor i32 %14, -1
  %16 = and i32 0, %15
  %17 = icmp ne i32 %16, 0
  br i1 %17, label %19, label %18

18:                                               ; preds = %13
  call void (ptr, ...) @dt_print_ext(ptr noundef @.str.26, ptr noundef @.str.27, ptr noundef @.str.3, i32 noundef 48, ptr noundef @__FUNCTION__._selection_raise_signal)
  br label %19

19:                                               ; preds = %18, %13, %9
  br label %20

20:                                               ; preds = %19
  br label %21

21:                                               ; preds = %20, %5, %1
  %22 = load ptr, ptr getelementptr inbounds nuw (%struct.darktable_t, ptr @darktable, i32 0, i32 13), align 8, !tbaa !58
  call void (ptr, i32, ...) @dt_control_signal_raise(ptr noundef %22, i32 noundef 8)
  br label %23

23:                                               ; preds = %21
  ret void
}

; Function Attrs: nounwind uwtable
define internal void @_selection_select(ptr noundef %0, i32 noundef %1) #0 {
  %3 = alloca ptr, align 8
  %4 = alloca i32, align 4
  %5 = alloca ptr, align 8
  %6 = alloca i32, align 4
  %7 = alloca ptr, align 8
  %8 = alloca i32, align 4
  store ptr %0, ptr %3, align 8, !tbaa !6
  store i32 %1, ptr %4, align 4, !tbaa !56
  %9 = load i32, ptr %4, align 4, !tbaa !56
  %10 = icmp sgt i32 %9, 0
  br i1 %10, label %11, label %85

11:                                               ; preds = %2
  call void @llvm.lifetime.start.p0(i64 8, ptr %5) #5
  %12 = load ptr, ptr getelementptr inbounds nuw (%struct.darktable_t, ptr @darktable, i32 0, i32 16), align 8, !tbaa !64
  %13 = load i32, ptr %4, align 4, !tbaa !56
  %14 = call ptr @dt_image_cache_get(ptr noundef %12, i32 noundef %13, i8 noundef signext 114)
  store ptr %14, ptr %5, align 8, !tbaa !65
  %15 = load ptr, ptr %5, align 8, !tbaa !65
  %16 = icmp ne ptr %15, null
  br i1 %16, label %17, label %84

17:                                               ; preds = %11
  call void @llvm.lifetime.start.p0(i64 4, ptr %6) #5
  %18 = load ptr, ptr %5, align 8, !tbaa !65
  %19 = getelementptr inbounds nuw %struct.dt_image_t, ptr %18, i32 0, i32 41
  %20 = load i32, ptr %19, align 4, !tbaa !67
  store i32 %20, ptr %6, align 4, !tbaa !56
  %21 = load ptr, ptr getelementptr inbounds nuw (%struct.darktable_t, ptr @darktable, i32 0, i32 16), align 8, !tbaa !64
  %22 = load ptr, ptr %5, align 8, !tbaa !65
  call void @dt_image_cache_read_release(ptr noundef %21, ptr noundef %22)
  call void @llvm.lifetime.start.p0(i64 8, ptr %7) #5
  store ptr null, ptr %7, align 8, !tbaa !60
  %23 = load ptr, ptr getelementptr inbounds nuw (%struct.darktable_t, ptr @darktable, i32 0, i32 14), align 8, !tbaa !78
  %24 = icmp ne ptr %23, null
  br i1 %24, label %25, label %41

25:                                               ; preds = %17
  %26 = load ptr, ptr getelementptr inbounds nuw (%struct.darktable_t, ptr @darktable, i32 0, i32 14), align 8, !tbaa !78
  %27 = getelementptr inbounds nuw %struct.dt_gui_gtk_t, ptr %26, i32 0, i32 8
  %28 = load i32, ptr %27, align 4, !tbaa !79
  %29 = icmp ne i32 %28, 0
  br i1 %29, label %30, label %41

30:                                               ; preds = %25
  %31 = load ptr, ptr getelementptr inbounds nuw (%struct.darktable_t, ptr @darktable, i32 0, i32 14), align 8, !tbaa !78
  %32 = getelementptr inbounds nuw %struct.dt_gui_gtk_t, ptr %31, i32 0, i32 9
  %33 = load i32, ptr %32, align 8, !tbaa !85
  %34 = load i32, ptr %6, align 4, !tbaa !56
  %35 = icmp eq i32 %33, %34
  br i1 %35, label %41, label %36

36:                                               ; preds = %30
  %37 = load ptr, ptr %3, align 8, !tbaa !6
  %38 = getelementptr inbounds nuw %struct.dt_selection_t, ptr %37, i32 0, i32 0
  %39 = load ptr, ptr %38, align 8, !tbaa !11
  %40 = icmp ne ptr %39, null
  br i1 %40, label %44, label %41

41:                                               ; preds = %36, %30, %25, %17
  %42 = load i32, ptr %4, align 4, !tbaa !56
  %43 = call noalias ptr (ptr, ...) @g_strdup_printf(ptr noundef @.str.28, i32 noundef %42)
  store ptr %43, ptr %7, align 8, !tbaa !60
  br label %51

44:                                               ; preds = %36
  %45 = load i32, ptr %6, align 4, !tbaa !56
  %46 = load ptr, ptr %3, align 8, !tbaa !6
  %47 = getelementptr inbounds nuw %struct.dt_selection_t, ptr %46, i32 0, i32 0
  %48 = load ptr, ptr %47, align 8, !tbaa !11
  %49 = call ptr @dt_collection_get_query_no_group(ptr noundef %48)
  %50 = call noalias ptr (ptr, ...) @g_strdup_printf(ptr noundef @.str.29, i32 noundef %45, ptr noundef %49)
  store ptr %50, ptr %7, align 8, !tbaa !60
  br label %51

51:                                               ; preds = %44, %41
  br label %52

52:                                               ; preds = %51
  br label %53

53:                                               ; preds = %52
  %54 = load i32, ptr getelementptr inbounds nuw (%struct.darktable_t, ptr @darktable, i32 0, i32 2), align 8, !tbaa !57
  %55 = and i32 256, %54
  %56 = icmp ne i32 %55, 0
  br i1 %56, label %57, label %64

57:                                               ; preds = %53
  %58 = load i32, ptr getelementptr inbounds nuw (%struct.darktable_t, ptr @darktable, i32 0, i32 2), align 8, !tbaa !57
  %59 = xor i32 %58, -1
  %60 = and i32 0, %59
  %61 = icmp ne i32 %60, 0
  br i1 %61, label %64, label %62

62:                                               ; preds = %57
  %63 = load ptr, ptr %7, align 8, !tbaa !60
  call void (ptr, ...) @dt_print_ext(ptr noundef @.str.5, ptr noundef @.str.3, i32 noundef 91, ptr noundef @__FUNCTION__._selection_select, ptr noundef %63)
  br label %64

64:                                               ; preds = %62, %57, %53
  br label %65

65:                                               ; preds = %64
  br label %66

66:                                               ; preds = %65
  call void @llvm.lifetime.start.p0(i64 4, ptr %8) #5
  %67 = load ptr, ptr getelementptr inbounds nuw (%struct.darktable_t, ptr @darktable, i32 0, i32 18), align 8, !tbaa !61
  %68 = call ptr @dt_database_get(ptr noundef %67)
  %69 = load ptr, ptr %7, align 8, !tbaa !60
  %70 = call i32 @sqlite3_exec(ptr noundef %68, ptr noundef %69, ptr noundef null, ptr noundef null, ptr noundef null)
  store i32 %70, ptr %8, align 4, !tbaa !56
  %71 = load i32, ptr %8, align 4, !tbaa !56
  %72 = icmp ne i32 %71, 0
  br i1 %72, label %73, label %80

73:                                               ; preds = %66
  %74 = load ptr, ptr @stderr, align 8, !tbaa !62
  %75 = load ptr, ptr %7, align 8, !tbaa !60
  %76 = load ptr, ptr getelementptr inbounds nuw (%struct.darktable_t, ptr @darktable, i32 0, i32 18), align 8, !tbaa !61
  %77 = call ptr @dt_database_get(ptr noundef %76)
  %78 = call ptr @sqlite3_errmsg(ptr noundef %77)
  %79 = call i32 (ptr, ptr, ...) @fprintf(ptr noundef %74, ptr noundef @.str.7, ptr noundef @.str.3, i32 noundef 91, ptr noundef @__FUNCTION__._selection_select, ptr noundef %75, ptr noundef %78) #5
  br label %80

80:                                               ; preds = %73, %66
  call void @llvm.lifetime.end.p0(i64 4, ptr %8) #5
  br label %81

81:                                               ; preds = %80
  br label %82

82:                                               ; preds = %81
  %83 = load ptr, ptr %7, align 8, !tbaa !60
  call void @g_free(ptr noundef %83)
  call void @llvm.lifetime.end.p0(i64 8, ptr %7) #5
  call void @llvm.lifetime.end.p0(i64 4, ptr %6) #5
  br label %84

84:                                               ; preds = %82, %11
  call void @llvm.lifetime.end.p0(i64 8, ptr %5) #5
  br label %85

85:                                               ; preds = %84, %2
  call void @_selection_raise_signal()
  %86 = load ptr, ptr getelementptr inbounds nuw (%struct.darktable_t, ptr @darktable, i32 0, i32 21), align 8, !tbaa !16
  call void @dt_collection_hint_message(ptr noundef %86)
  ret void
}

; Function Attrs: nounwind uwtable
define void @dt_selection_select(ptr noundef %0, i32 noundef %1) #0 {
  %3 = alloca ptr, align 8
  %4 = alloca i32, align 4
  store ptr %0, ptr %3, align 8, !tbaa !6
  store i32 %1, ptr %4, align 4, !tbaa !56
  %5 = load i32, ptr %4, align 4, !tbaa !56
  %6 = icmp sgt i32 %5, 0
  br i1 %6, label %8, label %7

7:                                                ; preds = %2
  br label %14

8:                                                ; preds = %2
  %9 = load ptr, ptr %3, align 8, !tbaa !6
  %10 = load i32, ptr %4, align 4, !tbaa !56
  call void @_selection_select(ptr noundef %9, i32 noundef %10)
  %11 = load i32, ptr %4, align 4, !tbaa !56
  %12 = load ptr, ptr %3, align 8, !tbaa !6
  %13 = getelementptr inbounds nuw %struct.dt_selection_t, ptr %12, i32 0, i32 1
  store i32 %11, ptr %13, align 8, !tbaa !15
  br label %14

14:                                               ; preds = %8, %7
  ret void
}