; Function Attrs: nounwind uwtable
define void @dt_selection_select(ptr noundef captures(none) %0, i32 noundef %1) local_unnamed_addr #1 {
  %3 = icmp sgt i32 %1, 0
  br i1 %3, label %4, label %54

4:                                                ; preds = %2
  %5 = load ptr, ptr getelementptr inbounds nuw (i8, ptr @darktable, i64 120), align 8, !tbaa !59
  %6 = tail call ptr @dt_image_cache_get(ptr noundef %5, i32 noundef range(i32 1, -2147483648) %1, i8 noundef signext 114) #8
  %.not.i = icmp eq ptr %6, null
  br i1 %.not.i, label %41, label %7

7:                                                ; preds = %4
  %8 = getelementptr inbounds nuw i8, ptr %6, i64 1436
  %9 = load i32, ptr %8, align 4, !tbaa !60
  %10 = load ptr, ptr getelementptr inbounds nuw (i8, ptr @darktable, i64 120), align 8, !tbaa !59
  tail call void @dt_image_cache_read_release(ptr noundef %10, ptr noundef nonnull %6) #8
  %11 = load ptr, ptr getelementptr inbounds nuw (i8, ptr @darktable, i64 104), align 8, !tbaa !71
  %.not19.i = icmp eq ptr %11, null
  br i1 %.not19.i, label %21, label %12

12:                                               ; preds = %7
  %13 = getelementptr inbounds nuw i8, ptr %11, i64 1356
  %14 = load i32, ptr %13, align 4, !tbaa !72
  %.not20.i = icmp eq i32 %14, 0
  br i1 %.not20.i, label %21, label %15

15:                                               ; preds = %12
  %16 = getelementptr inbounds nuw i8, ptr %11, i64 1360
  %17 = load i32, ptr %16, align 8, !tbaa !78
  %18 = icmp eq i32 %17, %9
  br i1 %18, label %21, label %19

19:                                               ; preds = %15
  %20 = load ptr, ptr %0, align 8, !tbaa !6
  %.not21.i = icmp eq ptr %20, null
  br i1 %.not21.i, label %21, label %23

21:                                               ; preds = %19, %15, %12, %7
  %22 = tail call noalias ptr (ptr, ...) @g_strdup_printf(ptr noundef nonnull @.str.28, i32 noundef range(i32 1, -2147483648) %1) #8
  br label %26

23:                                               ; preds = %19
  %24 = tail call ptr @dt_collection_get_query_no_group(ptr noundef nonnull %20) #8
  %25 = tail call noalias ptr (ptr, ...) @g_strdup_printf(ptr noundef nonnull @.str.29, i32 noundef %9, ptr noundef %24) #8
  br label %26

26:                                               ; preds = %23, %21
  %.0.i = phi ptr [ %22, %21 ], [ %25, %23 ]
  %27 = load i32, ptr getelementptr inbounds nuw (i8, ptr @darktable, i64 8), align 8, !tbaa !54
  %28 = and i32 %27, 256
  %.not22.i = icmp eq i32 %28, 0
  br i1 %.not22.i, label %30, label %29

29:                                               ; preds = %26
  tail call void (ptr, ...) @dt_print_ext(ptr noundef nonnull @.str.5, ptr noundef nonnull @.str.3, i32 noundef 91, ptr noundef nonnull @__FUNCTION__._selection_select, ptr noundef %.0.i) #8
  br label %30

30:                                               ; preds = %29, %26
  %31 = load ptr, ptr getelementptr inbounds nuw (i8, ptr @darktable, i64 136), align 8, !tbaa !56
  %32 = tail call ptr @dt_database_get(ptr noundef %31) #8
  %33 = tail call i32 @sqlite3_exec(ptr noundef %32, ptr noundef %.0.i, ptr noundef null, ptr noundef null, ptr noundef null) #8
  %.not23.i = icmp eq i32 %33, 0
  br i1 %.not23.i, label %40, label %34

34:                                               ; preds = %30
  %35 = load ptr, ptr @stderr, align 8, !tbaa !57
  %36 = load ptr, ptr getelementptr inbounds nuw (i8, ptr @darktable, i64 136), align 8, !tbaa !56
  %37 = tail call ptr @dt_database_get(ptr noundef %36) #8
  %38 = tail call ptr @sqlite3_errmsg(ptr noundef %37) #8
  %39 = tail call i32 (ptr, ptr, ...) @fprintf(ptr noundef %35, ptr noundef nonnull @.str.7, ptr noundef nonnull @.str.3, i32 noundef 91, ptr noundef nonnull @__FUNCTION__._selection_select, ptr noundef %.0.i, ptr noundef %38) #9
  br label %40

40:                                               ; preds = %34, %30
  tail call void @g_free(ptr noundef %.0.i) #8
  br label %41

41:                                               ; preds = %40, %4
  tail call void @dt_act_on_reset_cache(i32 noundef 1) #8
  tail call void @dt_act_on_reset_cache(i32 noundef 0) #8
  %42 = load i32, ptr getelementptr inbounds nuw (i8, ptr @darktable, i64 3128), align 8, !tbaa !53
  %43 = and i32 %42, 1
  %44 = icmp ne i32 %43, 0
  %45 = load i32, ptr getelementptr inbounds nuw (i8, ptr @darktable, i64 3164), align 4
  %46 = icmp ne i32 %45, 0
  %or.cond.i.i = select i1 %44, i1 %46, i1 false
  br i1 %or.cond.i.i, label %47, label %_selection_select.exit

47:                                               ; preds = %41
  %48 = load i32, ptr getelementptr inbounds nuw (i8, ptr @darktable, i64 8), align 8, !tbaa !54
  %49 = and i32 %48, 1048576
  %.not.i.i = icmp eq i32 %49, 0
  br i1 %.not.i.i, label %_selection_select.exit, label %50

50:                                               ; preds = %47
  tail call void (ptr, ...) @dt_print_ext(ptr noundef nonnull @.str.26, ptr noundef nonnull @.str.27, ptr noundef nonnull @.str.3, i32 noundef 48, ptr noundef nonnull @__FUNCTION__._selection_raise_signal) #8
  br label %_selection_select.exit

_selection_select.exit:                           ; preds = %41, %47, %50
  %51 = load ptr, ptr getelementptr inbounds nuw (i8, ptr @darktable, i64 96), align 8, !tbaa !55
  tail call void (ptr, i32, ...) @dt_control_signal_raise(ptr noundef %51, i32 noundef 8) #8
  %52 = load ptr, ptr getelementptr inbounds nuw (i8, ptr @darktable, i64 160), align 8, !tbaa !13
  tail call void @dt_collection_hint_message(ptr noundef %52) #8
  %53 = getelementptr inbounds nuw i8, ptr %0, i64 8
  store i32 %1, ptr %53, align 8, !tbaa !50
  br label %54

54:                                               ; preds = %2, %_selection_select.exit
  ret void
}